(dp0
S'test_account'
p1
(imendeley_client
MendeleyAccount
p2
(dp3
S'access_token'
p4
ccopy_reg
_reconstructor
p5
(coauth2
Token
p6
c__builtin__
object
p7
Ntp8
Rp9
(dp10
S'secret'
p11
V38ea7b76c799f42aedc9d4ac294e3141
p12
sS'key'
p13
Vea0ce426dc965a4ca4204084302b4f3d050cb3972
p14
sbsbs.